target datalayout = "e-m:e-p270:32:32-p271:32:32-p272:64:64-i64:64-i128:128-f80:128-n8:16:32:64-S128"
target triple = "x86_64-pc-linux-gnu"

%"class.clang::SourceLocation" = type { i32 }
%"class.clang::FullSourceLoc" = type { %"class.clang::SourceLocation", ptr }
%"struct.(anonymous namespace)::TransformActionsImpl::CharRange" = type { %"class.clang::FullSourceLoc", %"class.clang::FullSourceLoc" }

; Function Attrs: mustprogress nounwind uwtable
define linkonce_odr hidden noundef zeroext i1 @_ZNK5clang13FullSourceLoc29isBeforeInTranslationUnitThanES0_(ptr noundef nonnull align 8 dereferenceable(16) %0, i32 %1, ptr %2) #0 comdat align 2 {
  %4 = alloca %"class.clang::FullSourceLoc", align 8
  %5 = alloca ptr, align 8
  %6 = alloca %"class.clang::SourceLocation", align 4
  %7 = getelementptr inbounds nuw { i32, ptr }, ptr %4, i32 0, i32 0
  store i32 %1, ptr %7, align 8
  %8 = getelementptr inbounds nuw { i32, ptr }, ptr %4, i32 0, i32 1
  store ptr %2, ptr %8, align 8
  store ptr %0, ptr %5, align 8
  %9 = load ptr, ptr %5, align 8
  call void @llvm.memcpy.p0.p0.i64(ptr align 4 %6, ptr align 8 %4, i64 4, i1 false)
  %10 = getelementptr inbounds nuw %"class.clang::SourceLocation", ptr %6, i32 0, i32 0
  %11 = load i32, ptr %10, align 4
  %12 = call noundef zeroext i1 @_ZNK5clang13FullSourceLoc29isBeforeInTranslationUnitThanENS_14SourceLocationE(ptr noundef nonnull align 8 dereferenceable(16) %9, i32 %11)
  ret i1 %12
}

; Function Attrs: mustprogress nounwind uwtable
define internal noundef i32 @_ZNK12_GLOBAL__N_120TransformActionsImpl9CharRange11compareWithERKS1_(ptr noundef nonnull align 8 dereferenceable(32) %0, ptr noundef nonnull align 8 dereferenceable(32) %1) #0 align 2 {
  %3 = alloca i32, align 4
  %4 = alloca ptr, align 8
  %5 = alloca ptr, align 8
  %6 = alloca %"class.clang::FullSourceLoc", align 8
  %7 = alloca %"class.clang::FullSourceLoc", align 8
  %8 = alloca %"class.clang::FullSourceLoc", align 8
  %9 = alloca %"class.clang::FullSourceLoc", align 8
  %10 = alloca %"class.clang::FullSourceLoc", align 8
  %11 = alloca %"class.clang::FullSourceLoc", align 8
  %12 = alloca %"class.clang::FullSourceLoc", align 8
  store ptr %0, ptr %4, align 8
  store ptr %1, ptr %5, align 8
  %13 = load ptr, ptr %4, align 8
  %14 = getelementptr inbounds nuw %"struct.(anonymous namespace)::TransformActionsImpl::CharRange", ptr %13, i32 0, i32 1
  %15 = load ptr, ptr %5, align 8
  %16 = getelementptr inbounds nuw %"struct.(anonymous namespace)::TransformActionsImpl::CharRange", ptr %15, i32 0, i32 0
  call void @llvm.memcpy.p0.p0.i64(ptr align 8 %6, ptr align 8 %16, i64 16, i1 false)
  %17 = getelementptr inbounds nuw { i32, ptr }, ptr %6, i32 0, i32 0
  %18 = load i32, ptr %17, align 8
  %19 = getelementptr inbounds nuw { i32, ptr }, ptr %6, i32 0, i32 1
  %20 = load ptr, ptr %19, align 8
  %21 = call noundef zeroext i1 @_ZNK5clang13FullSourceLoc29isBeforeInTranslationUnitThanES0_(ptr noundef nonnull align 8 dereferenceable(16) %14, i32 %18, ptr %20)
  br i1 %21, label %22, label %23

22:                                               ; preds = %2
  store i32 0, ptr %3, align 4
  br label %82

23:                                               ; preds = %2
  %24 = load ptr, ptr %5, align 8
  %25 = getelementptr inbounds nuw %"struct.(anonymous namespace)::TransformActionsImpl::CharRange", ptr %24, i32 0, i32 1
  %26 = getelementptr inbounds nuw %"struct.(anonymous namespace)::TransformActionsImpl::CharRange", ptr %13, i32 0, i32 0
  call void @llvm.memcpy.p0.p0.i64(ptr align 8 %7, ptr align 8 %26, i64 16, i1 false)
  %27 = getelementptr inbounds nuw { i32, ptr }, ptr %7, i32 0, i32 0
  %28 = load i32, ptr %27, align 8
  %29 = getelementptr inbounds nuw { i32, ptr }, ptr %7, i32 0, i32 1
  %30 = load ptr, ptr %29, align 8
  %31 = call noundef zeroext i1 @_ZNK5clang13FullSourceLoc29isBeforeInTranslationUnitThanES0_(ptr noundef nonnull align 8 dereferenceable(16) %25, i32 %28, ptr %30)
  br i1 %31, label %32, label %33

32:                                               ; preds = %23
  store i32 1, ptr %3, align 4
  br label %82

33:                                               ; preds = %23
  %34 = getelementptr inbounds nuw %"struct.(anonymous namespace)::TransformActionsImpl::CharRange", ptr %13, i32 0, i32 0
  %35 = load ptr, ptr %5, align 8
  %36 = getelementptr inbounds nuw %"struct.(anonymous namespace)::TransformActionsImpl::CharRange", ptr %35, i32 0, i32 0
  call void @llvm.memcpy.p0.p0.i64(ptr align 8 %8, ptr align 8 %36, i64 16, i1 false)
  %37 = getelementptr inbounds nuw { i32, ptr }, ptr %8, i32 0, i32 0
  %38 = load i32, ptr %37, align 8
  %39 = getelementptr inbounds nuw { i32, ptr }, ptr %8, i32 0, i32 1
  %40 = load ptr, ptr %39, align 8
  %41 = call noundef zeroext i1 @_ZNK5clang13FullSourceLoc29isBeforeInTranslationUnitThanES0_(ptr noundef nonnull align 8 dereferenceable(16) %34, i32 %38, ptr %40)
  br i1 %41, label %52, label %42

42:                                               ; preds = %33
  %43 = load ptr, ptr %5, align 8
  %44 = getelementptr inbounds nuw %"struct.(anonymous namespace)::TransformActionsImpl::CharRange", ptr %43, i32 0, i32 1
  %45 = getelementptr inbounds nuw %"struct.(anonymous namespace)::TransformActionsImpl::CharRange", ptr %13, i32 0, i32 1
  call void @llvm.memcpy.p0.p0.i64(ptr align 8 %9, ptr align 8 %45, i64 16, i1 false)
  %46 = getelementptr inbounds nuw { i32, ptr }, ptr %9, i32 0, i32 0
  %47 = load i32, ptr %46, align 8
  %48 = getelementptr inbounds nuw { i32, ptr }, ptr %9, i32 0, i32 1
  %49 = load ptr, ptr %48, align 8
  %50 = call noundef zeroext i1 @_ZNK5clang13FullSourceLoc29isBeforeInTranslationUnitThanES0_(ptr noundef nonnull align 8 dereferenceable(16) %44, i32 %47, ptr %49)
  br i1 %50, label %52, label %51

51:                                               ; preds = %42
  store i32 3, ptr %3, align 4
  br label %82

52:                                               ; preds = %42, %33
  %53 = getelementptr inbounds nuw %"struct.(anonymous namespace)::TransformActionsImpl::CharRange", ptr %13, i32 0, i32 0
  %54 = load ptr, ptr %5, align 8
  %55 = getelementptr inbounds nuw %"struct.(anonymous namespace)::TransformActionsImpl::CharRange", ptr %54, i32 0, i32 0
  call void @llvm.memcpy.p0.p0.i64(ptr align 8 %10, ptr align 8 %55, i64 16, i1 false)
  %56 = getelementptr inbounds nuw { i32, ptr }, ptr %10, i32 0, i32 0
  %57 = load i32, ptr %56, align 8
  %58 = getelementptr inbounds nuw { i32, ptr }, ptr %10, i32 0, i32 1
  %59 = load ptr, ptr %58, align 8
  %60 = call noundef zeroext i1 @_ZNK5clang13FullSourceLoc29isBeforeInTranslationUnitThanES0_(ptr noundef nonnull align 8 dereferenceable(16) %53, i32 %57, ptr %59)
  br i1 %60, label %61, label %71

61:                                               ; preds = %52
  %62 = load ptr, ptr %5, align 8
  %63 = getelementptr inbounds nuw %"struct.(anonymous namespace)::TransformActionsImpl::CharRange", ptr %62, i32 0, i32 1
  %64 = getelementptr inbounds nuw %"struct.(anonymous namespace)::TransformActionsImpl::CharRange", ptr %13, i32 0, i32 1
  call void @llvm.memcpy.p0.p0.i64(ptr align 8 %11, ptr align 8 %64, i64 16, i1 false)
  %65 = getelementptr inbounds nuw { i32, ptr }, ptr %11, i32 0, i32 0
  %66 = load i32, ptr %65, align 8
  %67 = getelementptr inbounds nuw { i32, ptr }, ptr %11, i32 0, i32 1
  %68 = load ptr, ptr %67, align 8
  %69 = call noundef zeroext i1 @_ZNK5clang13FullSourceLoc29isBeforeInTranslationUnitThanES0_(ptr noundef nonnull align 8 dereferenceable(16) %63, i32 %66, ptr %68)
  br i1 %69, label %70, label %71

70:                                               ; preds = %61
  store i32 2, ptr %3, align 4
  br label %82

71:                                               ; preds = %61, %52
  %72 = getelementptr inbounds nuw %"struct.(anonymous namespace)::TransformActionsImpl::CharRange", ptr %13, i32 0, i32 0
  %73 = load ptr, ptr %5, align 8
  %74 = getelementptr inbounds nuw %"struct.(anonymous namespace)::TransformActionsImpl::CharRange", ptr %73, i32 0, i32 0
  call void @llvm.memcpy.p0.p0.i64(ptr align 8 %12, ptr align 8 %74, i64 16, i1 false)
  %75 = getelementptr inbounds nuw { i32, ptr }, ptr %12, i32 0, i32 0
  %76 = load i32, ptr %75, align 8
  %77 = getelementptr inbounds nuw { i32, ptr }, ptr %12, i32 0, i32 1
  %78 = load ptr, ptr %77, align 8
  %79 = call noundef zeroext i1 @_ZNK5clang13FullSourceLoc29isBeforeInTranslationUnitThanES0_(ptr noundef nonnull align 8 dereferenceable(16) %72, i32 %76, ptr %78)
  br i1 %79, label %80, label %81

80:                                               ; preds = %71
  store i32 4, ptr %3, align 4
  br label %82

81:                                               ; preds = %71
  store i32 5, ptr %3, align 4
  br label %82

82:                                               ; preds = %81, %80, %70, %51, %32, %22
  %83 = load i32, ptr %3, align 4
  ret i32 %83
}