; Function Attrs: mustprogress nounwind uwtable
define internal fastcc noundef range(i32 0, 6) i32 @_ZNK12_GLOBAL__N_120TransformActionsImpl9CharRange11compareWithERKS1_(ptr noundef nonnull align 8 dereferenceable(32) %0, ptr noundef nonnull align 8 dereferenceable(32) %1) unnamed_addr #3 align 2 {
  %3 = getelementptr inbounds nuw i8, ptr %0, i64 16
  %.sroa.017.0.copyload = load i32, ptr %1, align 8
  %4 = tail call noundef zeroext i1 @_ZNK5clang13FullSourceLoc29isBeforeInTranslationUnitThanENS_14SourceLocationE(ptr noundef nonnull align 8 dereferenceable(16) %3, i32 %.sroa.017.0.copyload) #21
  br i1 %4, label %18, label %5

5:                                                ; preds = %2
  %6 = getelementptr inbounds nuw i8, ptr %1, i64 16
  %.sroa.014.0.copyload = load i32, ptr %0, align 8
  %7 = tail call noundef zeroext i1 @_ZNK5clang13FullSourceLoc29isBeforeInTranslationUnitThanENS_14SourceLocationE(ptr noundef nonnull align 8 dereferenceable(16) %6, i32 %.sroa.014.0.copyload) #21
  br i1 %7, label %18, label %8

8:                                                ; preds = %5
  %.sroa.011.0.copyload = load i32, ptr %1, align 8
  %9 = tail call noundef zeroext i1 @_ZNK5clang13FullSourceLoc29isBeforeInTranslationUnitThanENS_14SourceLocationE(ptr noundef nonnull align 8 dereferenceable(16) %0, i32 %.sroa.011.0.copyload) #21
  br i1 %9, label %12, label %10

10:                                               ; preds = %8
  %.sroa.08.0.copyload = load i32, ptr %3, align 8
  %11 = tail call noundef zeroext i1 @_ZNK5clang13FullSourceLoc29isBeforeInTranslationUnitThanENS_14SourceLocationE(ptr noundef nonnull align 8 dereferenceable(16) %6, i32 %.sroa.08.0.copyload) #21
  br i1 %11, label %12, label %18

12:                                               ; preds = %10, %8
  %.sroa.05.0.copyload = load i32, ptr %1, align 8
  %13 = tail call noundef zeroext i1 @_ZNK5clang13FullSourceLoc29isBeforeInTranslationUnitThanENS_14SourceLocationE(ptr noundef nonnull align 8 dereferenceable(16) %0, i32 %.sroa.05.0.copyload) #21
  br i1 %13, label %14, label %16

14:                                               ; preds = %12
  %.sroa.02.0.copyload = load i32, ptr %3, align 8
  %15 = tail call noundef zeroext i1 @_ZNK5clang13FullSourceLoc29isBeforeInTranslationUnitThanENS_14SourceLocationE(ptr noundef nonnull align 8 dereferenceable(16) %6, i32 %.sroa.02.0.copyload) #21
  br i1 %15, label %18, label %16

16:                                               ; preds = %14, %12
  %.sroa.0.0.copyload = load i32, ptr %1, align 8
  %17 = tail call noundef zeroext i1 @_ZNK5clang13FullSourceLoc29isBeforeInTranslationUnitThanENS_14SourceLocationE(ptr noundef nonnull align 8 dereferenceable(16) %0, i32 %.sroa.0.0.copyload) #21
  %. = select i1 %17, i32 4, i32 5
  br label %18

18:                                               ; preds = %16, %14, %10, %5, %2
  %.0 = phi i32 [ 0, %2 ], [ 1, %5 ], [ 3, %10 ], [ 2, %14 ], [ %., %16 ]
  ret i32 %.0
}